target datalayout = "e-m:e-p270:32:32-p271:32:32-p272:64:64-i64:64-i128:128-f80:128-n8:16:32:64-S128"
target triple = "x86_64-pc-linux-gnu"

%struct.__sigset_t = type { [16 x i64] }

@.str.20 = private unnamed_addr constant [8 x i8] c"UNKNOWN\00", align 1
@.str.21 = private unnamed_addr constant [6 x i8] c"SIG%d\00", align 1

; Function Attrs: mustprogress nounwind uwtable
define internal noundef zeroext i1 @_ZL15is_valid_signali(i32 noundef %0) #1 {
  %2 = alloca i1, align 1
  %3 = alloca i32, align 4
  %4 = alloca %struct.__sigset_t, align 8
  store i32 %0, ptr %3, align 4
  %5 = call i32 @sigemptyset(ptr noundef %4) #2
  %6 = load i32, ptr %3, align 4
  %7 = call i32 @sigaddset(ptr noundef %4, i32 noundef %6) #2
  %8 = icmp eq i32 %7, -1
  br i1 %8, label %9, label %14

9:                                                ; preds = %1
  %10 = call ptr @__errno_location() #13
  %11 = load i32, ptr %10, align 4
  %12 = icmp eq i32 %11, 22
  br i1 %12, label %13, label %14

13:                                               ; preds = %9
  store i1 false, ptr %2, align 1
  br label %15

14:                                               ; preds = %9, %1
  store i1 true, ptr %2, align 1
  br label %15

15:                                               ; preds = %14, %13
  %16 = load i1, ptr %2, align 1
  ret i1 %16
}

; Function Attrs: mustprogress nounwind uwtable
define hidden noundef ptr @_ZN2os14exception_nameEiPcm(i32 noundef %0, ptr noundef %1, i64 noundef %2) #1 align 2 {
  %4 = alloca ptr, align 8
  %5 = alloca i32, align 4
  %6 = alloca ptr, align 8
  %7 = alloca i64, align 8
  %8 = alloca ptr, align 8
  store i32 %0, ptr %5, align 4
  store ptr %1, ptr %6, align 8
  store i64 %2, ptr %7, align 8
  %9 = load i32, ptr %5, align 4
  %10 = call noundef zeroext i1 @_ZL15is_valid_signali(i32 noundef %9)
  br i1 %10, label %12, label %11

11:                                               ; preds = %3
  store ptr null, ptr %4, align 8
  br label %27

12:                                               ; preds = %3
  %13 = load i32, ptr %5, align 4
  %14 = load ptr, ptr %6, align 8
  %15 = load i64, ptr %7, align 8
  %16 = call noundef ptr @_ZL15get_signal_nameiPcm(i32 noundef %13, ptr noundef %14, i64 noundef %15)
  store ptr %16, ptr %8, align 8
  %17 = load ptr, ptr %8, align 8
  %18 = call i32 @strcmp(ptr noundef %17, ptr noundef @.str.20) #14
  %19 = icmp eq i32 %18, 0
  br i1 %19, label %20, label %25

20:                                               ; preds = %12
  %21 = load ptr, ptr %6, align 8
  %22 = load i64, ptr %7, align 8
  %23 = load i32, ptr %5, align 4
  %24 = call i32 (ptr, i64, ptr, ...) @jio_snprintf(ptr noundef %21, i64 noundef %22, ptr noundef @.str.21, i32 noundef %23)
  br label %25

25:                                               ; preds = %20, %12
  %26 = load ptr, ptr %6, align 8
  store ptr %26, ptr %4, align 8
  br label %27

27:                                               ; preds = %25, %11
  %28 = load ptr, ptr %4, align 8
  ret ptr %28
}