; Function Attrs: mustprogress nounwind uwtable
define hidden noundef ptr @_ZN2os14exception_nameEiPcm(i32 noundef %0, ptr noundef %1, i64 noundef %2) local_unnamed_addr #0 align 2 {
  %4 = alloca %struct.__sigset_t, align 8
  call void @llvm.lifetime.start.p0(i64 128, ptr nonnull %4)
  %5 = call i32 @sigemptyset(ptr noundef nonnull %4) #20
  %6 = call i32 @sigaddset(ptr noundef nonnull %4, i32 noundef %0) #20
  %7 = icmp eq i32 %6, -1
  br i1 %7, label %8, label %12

8:                                                ; preds = %3
  %9 = tail call ptr @__errno_location() #21
  %10 = load i32, ptr %9, align 4
  %11 = icmp eq i32 %10, 22
  br i1 %11, label %_ZL15is_valid_signali.exit, label %12

_ZL15is_valid_signali.exit:                       ; preds = %8
  call void @llvm.lifetime.end.p0(i64 128, ptr nonnull %4)
  br label %18

12:                                               ; preds = %3, %8
  call void @llvm.lifetime.end.p0(i64 128, ptr nonnull %4)
  %13 = call fastcc noundef ptr @_ZL15get_signal_nameiPcm(i32 noundef %0, ptr noundef %1, i64 noundef %2)
  %14 = call i32 @strcmp(ptr noundef nonnull dereferenceable(1) %1, ptr noundef nonnull dereferenceable(8) @.str.20) #23
  %15 = icmp eq i32 %14, 0
  br i1 %15, label %16, label %18

16:                                               ; preds = %12
  %17 = call i32 (ptr, i64, ptr, ...) @jio_snprintf(ptr noundef %1, i64 noundef %2, ptr noundef nonnull @.str.21, i32 noundef %0) #20
  br label %18

18:                                               ; preds = %_ZL15is_valid_signali.exit, %12, %16
  %.0 = phi ptr [ null, %_ZL15is_valid_signali.exit ], [ %1, %16 ], [ %1, %12 ]
  ret ptr %.0
}